(dp1
S'right'
p2
ccollections
defaultdict
p3
(c__builtin__
int
p4
tRp5
Vall
p6
I5
sVcurrently
p7
I2
sVjust
p8
I8
sVless
p9
I11
sVwhen
p10
I1
sVover
p11
I2
sVmove
p12
I1
sVdollar
p13
I2
sVanyway
p14
I1
sVmonth
p15
I21
sVisnt
p16
I1
sVincluding
p17
I1
sVthanks
p18
I3
sVgo
p19
I1
sVyes
p20
I2
sVstill
p21
I1
sS'</s>'
p22
I1232
sVits
p23
I4
sVgc
p24
I1
sV650.00
p25
I1
sVbased
p26
I1
sVdollary-doo
p27
I1
sValso
p28
I1
sVsomewhere
p29
I1
sV(
I5
sVseems
p30
I55
sV,
I662
sVshould
p31
I1
sVfirm
p32
I2
sVto
p33
I57
sVcharge
p34
I1
sVbike
p35
I10
sVasking
p36
I9
sVpretty
p37
I1
sVlisting
p38
I4
sV:
I1
sVsorry
p39
I1
sV$40
p40
I1
sVmight
p41
I3
sVworth
p42
I1
sV...
p43
I35
sVgood
p44
I4
sVmeans
p45
I1
sVcould
p46
I2
sVunlimited
p47
I1
sVpossible
p48
I2
sVsaved
p49
I1
sVnext
p50
I1
sVamazon
p51
I1
sVmon
p52
I1
sVthey
p53
I1
sVnot
p54
I1
sVprovided
p55
I2
sVtoday-
p56
I1
sVnow
p57
I5
sVcool
p58
I1
sVcable
p59
I1
sVgift
p60
I2
sV--
p61
I4
sVdrop
p62
I1
sVhonestly
p63
I2
sVcorrect
p64
I4
sVmark
p65
I3
sVeach
p66
I21
sVwitht
p67
I1
sVsecurity
p68
I8
sVworks
p69
I13
sVoriginally
p70
I1
sVlooks
p71
I1
sVindividually
p72
I1
sVbecause
p73
I41
sVdeal
p74
I3
sVea
p75
I1
sVback
p76
I1
sVup
p77
I2
sVtheres
p78
I1
sVare
p79
I9
sVpicked
p80
I1
sVdownload
p81
I1
sVunless
p82
I3
sVbest
p83
I1
sVout
p84
I11
sVeven
p85
I8
sVdelivered
p86
I1
sVwhat
p87
I3
sVperchance
p88
I1
sVfor
p89
I916
sVplan
p90
I6
sVpet
p91
I2
sVfine
p92
I2
sV+
I4
sVsince
p93
I51
sVplease
p94
I8
sVmth
p95
I2
sVper
p96
I32
sVget
p97
I1
sVeverything
p98
I2
sVrepair
p99
I1
sVdoes
p100
I8
sVabove
p101
I1
sVminus
p102
I1
sVnew
p103
I13
sV;
I4
sVcause
p104
I2
sVtech
p105
I1
sV?
I1439
sVavailable
p106
I3
sVbe
p107
I14
sVwe
p108
I9
sVearlier
p109
I1
sVdo
p110
I6
sVhowever
p111
I2
sVotherwise
p112
I1
sVdiscount
p113
I14
sVfee
p114
I1
sValone
p115
I2
sValong
p116
I1
sVcome
p117
I2
sVby
p118
I2
sVthank
p119
I2
sVon
p120
I47
sVbills
p121
I1
sVlast
p122
I10
sVpackage
p123
I1
sVof
p124
I3
sVdollars
p125
I31
sVso
p126
I35
sVagree
p127
I1
sVetc
p128
I1
sVrange
p129
I18
sVwalmart
p130
I1
sVplus
p131
I28
sVdue
p132
I3
sVusually
p133
I1
sV$250
p134
I1
sVretail
p135
I1
sVwhole
p136
I1
sVor
p137
I21
sVthats
p138
I3
sVgolden
p139
I1
sVextra
p140
I4
sVpreviously
p141
I1
sVinto
p142
I1
sVone
p143
I1
sVdown
p144
I1
sVright
p145
I32
sVsounds
p146
I66
sVtotal
p147
I5
sVkind
p148
I1
sVconsidering
p149
I4
sVusd
p150
I2
sVfrom
p151
I9
sVdicount
p152
I1
sVwould
p153
I65
sV&
I3
sVmonthly
p154
I6
sVtop
p155
I1
sVthere
p156
I1
sVonly
p157
I2
sVlol
p158
I3
sV.
I1720
sVbudgeted
p159
I1
sVstuck
p160
I1
sVreduction
p161
I1
sVtoo
p162
I3
sVinterest
p163
I2
sVbasic
p164
I1
sVhundred
p165
I1
sVwas
p166
I5
sVfinal
p167
I16
sVtoday
p168
I16
sVmore
p169
I16
sVlowest
p170
I1
sVflat
p171
I4
sVeasy
p172
I1
sVwoudl
p173
I1
sVthat
p174
I34
sVshipped
p175
I4
sVbrand
p176
I11
sVgas
p177
I3
sVbut
p178
I164
sVsomehow
p179
I1
sVphone
p180
I2
sVok
p181
I1
sV$120
p182
I1
sVwith
p183
I80
sVthan
p184
I2
sVhe
p185
I1
sVsound
p186
I90
sVotter
p187
I1
sVinclude
p188
I2
sV$1200
p189
I1
sVthis
p190
I4
sVcar
p191
I1
sVmo
p192
I4
sVbill
p193
I1
sVcash
p194
I264
sVvalue
p195
I2
sVwill
p196
I23
sVconsidered
p197
I1
sVwhile
p198
I1
sVcan
p199
I13
sVhow
p200
I3
sVmaybe
p201
I1
sVokay
p202
I6
sVpiece
p203
I1
sVmy
p204
I1
sVill
p205
I1
sVrent
p206
I3
sVand
p207
I743
sVive
p208
I1
sVsight
p209
I1
sVthen
p210
I36
sVis
p211
I508
sVit
p212
I95
sVstarbucks
p213
I1
sVan
p214
I1
sVtonight
p215
I1
sVas
p216
I32
sVminimum
p217
I3
sVat
p218
I12
sVin
p219
I88
sVbucks
p220
I5
sVseem
p221
I3
sVwork
p222
I31
sVtrade
p223
I1
sVif
p224
I376
sV!
I45
sVdifferent
p225
I1
sVperhaps
p226
I1
sV%
I1
sVnon-refundable
p227
I1
sVcredit
p228
I5
sV)
I4
sV$20
p229
I1
sVoffer
p230
I6
sV-
I11
sVamount
p231
I1
sVwho
p232
I1
sVid
p233
I1
sVapplication
p234
I1
sVtake
p235
I2
sVwhich
p236
I13
sVonline
p237
I3
sVinstead
p238
I6
sVyou
p239
I10
sVacceptable
p240
I1
sVhigher
p241
I3
sVused
p242
I1
sV's
p243
I1
sVthough
p244
I18
sVmay
p245
I1
sVmax
p246
I2
sVprice
p247
I12
sVafter
p248
I2
sVtops
p249
I2
sVutilities
p250
I1
sVpaid
p251
I1
sVincludes
p252
I1
sVvisa
p253
I2
sVinvested
p254
I1
sVmate
p255
I1
sVcheque
p256
I1
sVnothing
p257
I4
sVloan
p258
I3
sVlots
p259
I1
sVpeugeot
p260
I1
sVa
I102
sVpurchase
p261
I1
sVoff
p262
I57
sVincase
p263
I1
sVi
I81
sVlight
p264
I1
sVno
p265
I2
sVmonthy
p266
I1
sVroughly
p267
I1
sVrather
p268
I1
sVwithout
p269
I11
sVu
I1
sVdeposit
p270
I12
sVapart
p271
I1
sVvintage
p272
I1
sVthe
p273
I4
sVfirst
p274
I2
sVoriginal
p275
I1
sVsd
p276
I1
ssS'left'
p277
g3
(g4
tRp278
Vour
p279
I1
sVsaying
p280
I1
sVall
p281
I1
sVcurrently
p282
I1
sVconsider
p283
I76
sVjust
p284
I14
sVmoney
p285
I1
sVover
p286
I41
sVsellingfor
p287
I1
sVanyway
p288
I1
sVmonth
p289
I1
sVbring
p290
I3
sVworld
p291
I1
sVgo
p292
I113
sVyes
p293
I7
sVsaved
p294
I1
sVfind
p295
I1
sVd0
p296
I1
sVok.
p297
I5
sVabotu
p298
I1
sV25
p299
I1
sVcut
p300
I1
sVhow
p301
I1
sVthinking
p302
I33
sV(
I2
sVconsinder
p303
I1
sVoriginal
p304
I2
sVguaranteed
p305
I1
sV,
I121
sVmattress
p306
I1
sV$110-
p307
I1
sVto
p308
I681
sVonly
p309
I57
sVgoing
p310
I1
sVunder
p311
I17
sVsorry
p312
I2
sVhas
p313
I1
sVworth
p314
I15
sVmatch
p315
I1
sVmeant
p316
I4
sVdo
p317
I940
sVgood
p318
I5
sVhandle
p319
I2
sVaround
p320
I180
sVyo
p321
I1
sVget
p322
I57
sVya
p323
I2
sVlisted
p324
I1
sV120
p325
I1
sVme
p326
I32
sVarouns
p327
I1
sVknow
p328
I1
sVaford
p329
I1
sVnot
p330
I5
sV2
I1
sVnew
p331
I2
sV$200
p332
I1
sVmeasly
p333
I2
sVknock
p334
I13
sVbout
p335
I2
sVlike
p336
I56
sVgift
p337
I1
sVnoon
p338
I1
sV--
p339
I2
sVdid
p340
I1
sV18
p341
I1
sVbecome
p342
I1
sVgor
p343
I1
sVround
p344
I1
sVtowards
p345
I2
sV3000
p346
I1
sVpremium
p347
I1
sVaskimg
p348
I1
sVtoo
p349
I2
sVapproximately
p350
I2
sVsays
p351
I3
sVfair
p352
I1
sV200
p353
I1
sVdoing
p354
I2
sVlamp.
p355
I1
sVframe
p356
I1
sVyeah
p357
I2
sVphone
p358
I1
sVmaximum
p359
I1
sVsee
p360
I2
sVcost
p361
I5
sVare
p362
I7
sV's
p363
I28
sVbeyond
p364
I2
sVaddition
p365
I1
sVcloser
p366
I1
sVn't
p367
I1
sVwhat
p368
I1
sVsaid
p369
I2
sVfor
p370
I1178
sVinvesting
p371
I1
sVwow
p372
I2
sVsince
p373
I1
sVnear
p374
I1
sVits
p375
I1
sVfoe
p376
I1
sVasking
p377
I297
sVabove
p378
I6
sVbetween
p379
I1
sVumm
p380
I1
sVgot
p381
I3
sVhmmm
p382
I1
sV?
I28
sVaccpet
p383
I1
sVbe
p384
I50
sVagreement
p385
I1
sVfull
p386
I9
sV300
p387
I1
sV58
p388
I1
sVwere
p389
I1
sVhowever
p390
I2
sVquite
p391
I1
sVinvest
p392
I1
sVspare
p393
I1
sVfound
p394
I2
sVput
p395
I3
sVwanted
p396
I7
sVcome
p397
I1
sVby
p398
I5
sVon
p399
I33
sVabout
p400
I686
sVok
p401
I16
sVreceive
p402
I1
sVof
p403
I198
sVtaking
p404
I14
sVneeding
p405
I1
sVask
p406
I1
sVtruck
p407
I1
sV35
p408
I1
sV44
p409
I1
sVment
p410
I1
sVs
I1
sg131
I8
sVatleast
p411
I2
sVswing
p412
I13
sVfot
p413
I1
sV+
I1
sVthink
p414
I60
sVthats
p415
I1
sVarfound
p416
I1
sVfantastic
p417
I1
sValready
p418
I1
sVextra
p419
I20
sVfeel
p420
I1
sVinto
p421
I1
sVwithin
p422
I1
sVknocking
p423
I1
sVexcept
p424
I1
sVdown
p425
I9
sVlosing
p426
I1
sVsubmit
p427
I1
sVanother
p428
I9
sVtype
p429
I1
sVmanage
p430
I1
sVold
p431
I1
sVactually
p432
I2
sVyour
p433
I5
sVhoping
p434
I1
sVwao
p435
I1
sVguess
p436
I2
sVor
p437
I11
sVfrom
p438
I8
sVadditional
p439
I10
sVwould
p440
I44
sS'<s>'
p441
I575
sVtogether
p442
I2
sVfro
p443
I1
sVcharge
p444
I3
sVleast
p445
I64
sV.
I286
sV180
p446
I1
sVbike
p447
I1
sVlow
p448
I3
sVwondering
p449
I1
sVthen
p450
I12
sVwanting
p451
I6
sVsale
p452
I2
sVwas
p453
I18
sVtoday
p454
I2
sVmore
p455
I2
sVfirm
p456
I1
sVflat
p457
I1
sV750
p458
I1
sVway
p459
I1
sVoffering
p460
I12
sVthat
p461
I18
sVafford
p462
I37
sVoffered
p463
I5
sVgreat
p464
I3
sVbut
p465
I64
sV550
p466
I1
sVhmm
p467
I1
sVhi
p468
I2
sVbasically
p469
I1
sV...
p470
I16
sV@
I1
sVlast
p471
I1
sVbelieve
p472
I2
sVwith
p473
I53
sVthan
p474
I140
sVoff.
p475
I1
sVpaying
p476
I10
sV10
p477
I2
sVhour
p478
I1
sVmiddle
p479
I1
sVbothfor
p480
I1
sVoriginally
p481
I3
sVwork
p482
I3
sVyreah
p483
I1
sVup
p484
I6
sVspending
p485
I2
sVwill
p486
I5
sVbelow
p487
I13
sV're
p488
I2
sVbudget
p489
I1
sVother
p490
I4
sVmy
p491
I3
sVsay
p492
I45
sVrent
p493
I1
sVand
p494
I20
sVwant
p495
I15
sVabouot
p496
I1
sVgive
p497
I8
sValmost
p498
I6
sVcover
p499
I1
sVis
p500
I387
sVmind
p501
I1
sVit
p502
I50
sVaccept
p503
I380
sVan
p504
I4
sVstates
p505
I3
sV$35-
p506
I1
sVas
p507
I92
sVretails
p508
I1
sVat
p509
I324
sVhave
p510
I139
sVin
p511
I5
sVneed
p512
I10
sVhit
p513
I1
sVaccecpt
p514
I2
sVif
p515
I4
sV!
I38
sVneeds
p516
I2
sVafraid
p517
I2
sV'll
p518
I1
sV)
I3
sVpay
p519
I308
sVmake
p520
I5
sVoffer
p521
I172
sV-
I6
sValso
p522
I1
sVinterested
p523
I1
sVtake
p524
I559
sVseeking
p525
I2
sVu
I1
sVyou
p526
I284
sVout
p527
I1
sVcharging
p528
I1
sVupto
p529
I1
sVeven
p530
I26
sVplay
p531
I1
sVsure
p532
I7
sVokay
p533
I8
sVmay
p534
I1
sVprice
p535
I7
sVuse
p536
I1
sVpaid
p537
I23
sVmost
p538
I3
sVregular
p539
I1
sVground
p540
I1
sVblood
p541
I1
sV70
p542
I2
sVaccepting
p543
I4
sV$10-
p544
I1
sVwhy
p545
I2
sVman
p546
I1
sVa
I76
sV60
p547
I1
sVshort
p548
I1
sVoff
p549
I16
sVowe
p550
I1
sVpossibly
p551
I1
sVmaybe
p552
I35
sVwell
p553
I3
sVspent
p554
I2
sVdeal
p555
I2
sVdoe
p556
I1
sVofr
p557
I1
sVperhaps
p558
I1
sV2000
p559
I1
sVcosts
p560
I2
sVso
p561
I28
sVdoes
p562
I92
sVadd
p563
I4
sVthe
p564
I167
sVmean
p565
I2
sVnormally
p566
I1
sVspend
p567
I11
sV$900-
p568
I1
ss.